target datalayout = "e-m:e-p270:32:32-p271:32:32-p272:64:64-i64:64-i128:128-f80:128-n8:16:32:64-S128"
target triple = "x86_64-pc-linux-gnu"

%union.YYSTYPE = type { %"struct.nix::StringToken" }
%"struct.nix::StringToken" = type { ptr, i64, i8 }
%"struct.nix::ParserLocation" = type { i32, i32, i32, i32, i32, i32, i32, i32 }
%struct.yyGLRStack = type { i32, [3 x %union.yyGLRStackItem], i32, i32, %union.YYSTYPE, %"struct.nix::ParserLocation", [1 x %struct.__jmp_buf_tag], ptr, ptr, i64, ptr, ptr, %struct.yyGLRStateSet }
%union.yyGLRStackItem = type { %struct.yySemanticOption }
%struct.yySemanticOption = type { i8, i32, ptr, i32, %union.YYSTYPE, %"struct.nix::ParserLocation", ptr }
%struct.__jmp_buf_tag = type { [8 x i64], i32, %struct.__sigset_t }
%struct.__sigset_t = type { [16 x i64] }
%struct.yyGLRStateSet = type { ptr, ptr, i64, i64 }
%struct.yyGLRState = type { i8, i8, i32, ptr, i64, %union.anon.38, %"struct.nix::ParserLocation" }
%union.anon.38 = type { %union.YYSTYPE }

; Function Attrs: mustprogress nounwind uwtable
define internal void @_ZL15yycompressStackP10yyGLRStack(ptr noundef %0) #2 {
  %2 = alloca ptr, align 8
  %3 = alloca ptr, align 8
  %4 = alloca ptr, align 8
  %5 = alloca ptr, align 8
  store ptr %0, ptr %2, align 8
  %6 = load ptr, ptr %2, align 8
  %7 = getelementptr inbounds %struct.yyGLRStack, ptr %6, i32 0, i32 12
  %8 = getelementptr inbounds %struct.yyGLRStateSet, ptr %7, i32 0, i32 2
  %9 = load i64, ptr %8, align 8
  %10 = icmp ne i64 %9, 1
  br i1 %10, label %16, label %11

11:                                               ; preds = %1
  %12 = load ptr, ptr %2, align 8
  %13 = getelementptr inbounds %struct.yyGLRStack, ptr %12, i32 0, i32 10
  %14 = load ptr, ptr %13, align 8
  %15 = icmp eq ptr %14, null
  br i1 %15, label %16, label %17

16:                                               ; preds = %11, %1
  br label %117

17:                                               ; preds = %11
  %18 = load ptr, ptr %2, align 8
  %19 = getelementptr inbounds %struct.yyGLRStack, ptr %18, i32 0, i32 12
  %20 = getelementptr inbounds %struct.yyGLRStateSet, ptr %19, i32 0, i32 0
  %21 = load ptr, ptr %20, align 8
  %22 = getelementptr inbounds ptr, ptr %21, i64 0
  %23 = load ptr, ptr %22, align 8
  store ptr %23, ptr %4, align 8
  %24 = load ptr, ptr %4, align 8
  %25 = getelementptr inbounds %struct.yyGLRState, ptr %24, i32 0, i32 3
  %26 = load ptr, ptr %25, align 8
  store ptr %26, ptr %5, align 8
  store ptr null, ptr %3, align 8
  br label %27

27:                                               ; preds = %37, %17
  %28 = load ptr, ptr %4, align 8
  %29 = load ptr, ptr %2, align 8
  %30 = getelementptr inbounds %struct.yyGLRStack, ptr %29, i32 0, i32 10
  %31 = load ptr, ptr %30, align 8
  %32 = icmp ne ptr %28, %31
  br i1 %32, label %33, label %43

33:                                               ; preds = %27
  %34 = load ptr, ptr %3, align 8
  %35 = load ptr, ptr %4, align 8
  %36 = getelementptr inbounds %struct.yyGLRState, ptr %35, i32 0, i32 3
  store ptr %34, ptr %36, align 8
  br label %37

37:                                               ; preds = %33
  %38 = load ptr, ptr %4, align 8
  store ptr %38, ptr %3, align 8
  %39 = load ptr, ptr %5, align 8
  store ptr %39, ptr %4, align 8
  %40 = load ptr, ptr %4, align 8
  %41 = getelementptr inbounds %struct.yyGLRState, ptr %40, i32 0, i32 3
  %42 = load ptr, ptr %41, align 8
  store ptr %42, ptr %5, align 8
  br label %27, !llvm.loop !22

43:                                               ; preds = %27
  %44 = load ptr, ptr %2, align 8
  %45 = getelementptr inbounds %struct.yyGLRStack, ptr %44, i32 0, i32 8
  %46 = load ptr, ptr %45, align 8
  %47 = load ptr, ptr %2, align 8
  %48 = getelementptr inbounds %struct.yyGLRStack, ptr %47, i32 0, i32 7
  %49 = load ptr, ptr %48, align 8
  %50 = ptrtoint ptr %46 to i64
  %51 = ptrtoint ptr %49 to i64
  %52 = sub i64 %50, %51
  %53 = sdiv exact i64 %52, 88
  %54 = load ptr, ptr %2, align 8
  %55 = getelementptr inbounds %struct.yyGLRStack, ptr %54, i32 0, i32 9
  %56 = load i64, ptr %55, align 8
  %57 = add nsw i64 %56, %53
  store i64 %57, ptr %55, align 8
  %58 = load ptr, ptr %2, align 8
  %59 = getelementptr inbounds %struct.yyGLRStack, ptr %58, i32 0, i32 10
  %60 = load ptr, ptr %59, align 8
  %61 = getelementptr inbounds %union.yyGLRStackItem, ptr %60, i64 1
  %62 = load ptr, ptr %2, align 8
  %63 = getelementptr inbounds %struct.yyGLRStack, ptr %62, i32 0, i32 8
  store ptr %61, ptr %63, align 8
  %64 = load ptr, ptr %2, align 8
  %65 = getelementptr inbounds %struct.yyGLRStack, ptr %64, i32 0, i32 8
  %66 = load ptr, ptr %65, align 8
  %67 = load ptr, ptr %2, align 8
  %68 = getelementptr inbounds %struct.yyGLRStack, ptr %67, i32 0, i32 7
  %69 = load ptr, ptr %68, align 8
  %70 = ptrtoint ptr %66 to i64
  %71 = ptrtoint ptr %69 to i64
  %72 = sub i64 %70, %71
  %73 = sdiv exact i64 %72, 88
  %74 = load ptr, ptr %2, align 8
  %75 = getelementptr inbounds %struct.yyGLRStack, ptr %74, i32 0, i32 9
  %76 = load i64, ptr %75, align 8
  %77 = sub nsw i64 %76, %73
  store i64 %77, ptr %75, align 8
  %78 = load ptr, ptr %2, align 8
  %79 = getelementptr inbounds %struct.yyGLRStack, ptr %78, i32 0, i32 10
  store ptr null, ptr %79, align 8
  %80 = load ptr, ptr %2, align 8
  %81 = getelementptr inbounds %struct.yyGLRStack, ptr %80, i32 0, i32 11
  store ptr null, ptr %81, align 8
  br label %82

82:                                               ; preds = %85, %43
  %83 = load ptr, ptr %3, align 8
  %84 = icmp ne ptr %83, null
  br i1 %84, label %85, label %117

85:                                               ; preds = %82
  %86 = load ptr, ptr %3, align 8
  %87 = load ptr, ptr %2, align 8
  %88 = getelementptr inbounds %struct.yyGLRStack, ptr %87, i32 0, i32 8
  %89 = load ptr, ptr %88, align 8
  call void @llvm.memcpy.p0.p0.i64(ptr align 8 %89, ptr align 8 %86, i64 80, i1 false)
  %90 = load ptr, ptr %3, align 8
  %91 = getelementptr inbounds %struct.yyGLRState, ptr %90, i32 0, i32 3
  %92 = load ptr, ptr %91, align 8
  store ptr %92, ptr %3, align 8
  %93 = load ptr, ptr %2, align 8
  %94 = getelementptr inbounds %struct.yyGLRStack, ptr %93, i32 0, i32 8
  %95 = load ptr, ptr %94, align 8
  %96 = getelementptr inbounds %union.yyGLRStackItem, ptr %95, i64 -1
  %97 = load ptr, ptr %2, align 8
  %98 = getelementptr inbounds %struct.yyGLRStack, ptr %97, i32 0, i32 8
  %99 = load ptr, ptr %98, align 8
  %100 = getelementptr inbounds %struct.yyGLRState, ptr %99, i32 0, i32 3
  store ptr %96, ptr %100, align 8
  %101 = load ptr, ptr %2, align 8
  %102 = getelementptr inbounds %struct.yyGLRStack, ptr %101, i32 0, i32 8
  %103 = load ptr, ptr %102, align 8
  %104 = load ptr, ptr %2, align 8
  %105 = getelementptr inbounds %struct.yyGLRStack, ptr %104, i32 0, i32 12
  %106 = getelementptr inbounds %struct.yyGLRStateSet, ptr %105, i32 0, i32 0
  %107 = load ptr, ptr %106, align 8
  %108 = getelementptr inbounds ptr, ptr %107, i64 0
  store ptr %103, ptr %108, align 8
  %109 = load ptr, ptr %2, align 8
  %110 = getelementptr inbounds %struct.yyGLRStack, ptr %109, i32 0, i32 8
  %111 = load ptr, ptr %110, align 8
  %112 = getelementptr inbounds %union.yyGLRStackItem, ptr %111, i64 1
  store ptr %112, ptr %110, align 8
  %113 = load ptr, ptr %2, align 8
  %114 = getelementptr inbounds %struct.yyGLRStack, ptr %113, i32 0, i32 9
  %115 = load i64, ptr %114, align 8
  %116 = sub nsw i64 %115, 1
  store i64 %116, ptr %114, align 8
  br label %82, !llvm.loop !23

117:                                              ; preds = %82, %16
  ret void
}