; Function Attrs: mustprogress nofree norecurse nosync nounwind memory(readwrite, inaccessiblemem: none) uwtable
define internal fastcc void @_ZL15yycompressStackP10yyGLRStack(ptr nocapture noundef %0) unnamed_addr #10 {
  %2 = getelementptr inbounds i8, ptr %0, i64 576
  %3 = getelementptr inbounds i8, ptr %0, i64 592
  %4 = load i64, ptr %3, align 8
  %.not = icmp eq i64 %4, 1
  br i1 %.not, label %5, label %.loopexit

5:                                                ; preds = %1
  %6 = getelementptr inbounds i8, ptr %0, i64 560
  %7 = load ptr, ptr %6, align 8
  %8 = icmp eq ptr %7, null
  br i1 %8, label %.loopexit, label %9

9:                                                ; preds = %5
  %10 = load ptr, ptr %2, align 8
  %11 = load ptr, ptr %10, align 8
  %.not3335 = icmp eq ptr %11, %7
  br i1 %.not3335, label %._crit_edge, label %.lr.ph

.lr.ph:                                           ; preds = %9, %.lr.ph
  %.03137 = phi ptr [ %.0, %.lr.ph ], [ %11, %9 ]
  %.03236 = phi ptr [ %.03137, %.lr.ph ], [ null, %9 ]
  %.0.in = getelementptr inbounds i8, ptr %.03137, i64 8
  %.0 = load ptr, ptr %.0.in, align 8
  store ptr %.03236, ptr %.0.in, align 8
  %12 = load ptr, ptr %6, align 8
  %.not33 = icmp eq ptr %.0, %12
  br i1 %.not33, label %._crit_edge, label %.lr.ph, !llvm.loop !16

._crit_edge:                                      ; preds = %.lr.ph, %9
  %.032.lcssa = phi ptr [ null, %9 ], [ %.03137, %.lr.ph ]
  %.lcssa = phi ptr [ %7, %9 ], [ %.0, %.lr.ph ]
  %13 = getelementptr inbounds i8, ptr %0, i64 544
  %14 = load ptr, ptr %13, align 8
  %15 = getelementptr inbounds i8, ptr %0, i64 536
  %16 = load ptr, ptr %15, align 8
  %17 = ptrtoint ptr %14 to i64
  %18 = ptrtoint ptr %16 to i64
  %19 = sub i64 %17, %18
  %20 = sdiv exact i64 %19, 88
  %21 = getelementptr inbounds i8, ptr %0, i64 552
  %22 = load i64, ptr %21, align 8
  %23 = add nsw i64 %20, %22
  %24 = getelementptr inbounds i8, ptr %.lcssa, i64 88
  store ptr %24, ptr %13, align 8
  %25 = ptrtoint ptr %24 to i64
  %26 = sub i64 %25, %18
  %.neg = sdiv exact i64 %26, -88
  %27 = add i64 %23, %.neg
  store i64 %27, ptr %21, align 8
  %.not3439 = icmp eq ptr %.032.lcssa, null
  tail call void @llvm.memset.p0.i64(ptr noundef nonnull align 8 dereferenceable(16) %6, i8 0, i64 16, i1 false)
  br i1 %.not3439, label %.loopexit, label %.lr.ph42

.lr.ph42:                                         ; preds = %._crit_edge, %.lr.ph42
  %28 = phi ptr [ %36, %.lr.ph42 ], [ %24, %._crit_edge ]
  %.140 = phi ptr [ %30, %.lr.ph42 ], [ %.032.lcssa, %._crit_edge ]
  tail call void @llvm.memcpy.p0.p0.i64(ptr noundef nonnull align 8 dereferenceable(80) %28, ptr noundef nonnull align 8 dereferenceable(80) %.140, i64 80, i1 false)
  %29 = getelementptr inbounds i8, ptr %.140, i64 8
  %30 = load ptr, ptr %29, align 8
  %31 = load ptr, ptr %13, align 8
  %32 = getelementptr inbounds i8, ptr %31, i64 -88
  %33 = getelementptr inbounds i8, ptr %31, i64 8
  store ptr %32, ptr %33, align 8
  %34 = load ptr, ptr %13, align 8
  %35 = load ptr, ptr %2, align 8
  store ptr %34, ptr %35, align 8
  %36 = getelementptr inbounds i8, ptr %34, i64 88
  store ptr %36, ptr %13, align 8
  %37 = load i64, ptr %21, align 8
  %38 = add nsw i64 %37, -1
  store i64 %38, ptr %21, align 8
  %.not34 = icmp eq ptr %30, null
  br i1 %.not34, label %.loopexit, label %.lr.ph42, !llvm.loop !17

.loopexit:                                        ; preds = %.lr.ph42, %._crit_edge, %1, %5
  ret void
}